target datalayout = "e-m:e-p270:32:32-p271:32:32-p272:64:64-i64:64-i128:128-f80:128-n8:16:32:64-S128"
target triple = "x86_64-pc-linux-gnu"

%struct.exr_attr_string_vector_t = type { i32, i32, ptr }
%struct.exr_attr_string_t = type { i32, i32, ptr }
%struct._priv_exr_context_t = type { i8, i8, i8, i8, i8, i8, i8, i8, %struct.exr_attr_string_t, %struct.exr_attr_string_t, ptr, ptr, ptr, ptr, ptr, ptr, ptr, ptr, i32, i32, i32, i32, i32, float, ptr, ptr, ptr, i64, ptr, ptr, i64, i32, i32, i32, i32, %struct._priv_exr_part_t, ptr, ptr, %struct.exr_attribute_list, %union.pthread_mutex_t, i8, i8, [2 x i8], i32 }
%struct._priv_exr_part_t = type { i32, i32, %struct.exr_attribute_list, ptr, ptr, ptr, ptr, ptr, ptr, ptr, ptr, ptr, ptr, ptr, ptr, ptr, ptr, %struct.exr_attr_box2i_t, %struct.exr_attr_box2i_t, i32, i32, i32, float, i32, i32, ptr, ptr, ptr, ptr, i64, i16, i16, i32, i64, i64 }
%struct.exr_attr_box2i_t = type { %struct.exr_attr_v2i_t, %struct.exr_attr_v2i_t }
%struct.exr_attr_v2i_t = type { i32, i32 }
%struct.exr_attribute_list = type { i32, i32, ptr, ptr }
%union.pthread_mutex_t = type { %struct.__pthread_mutex_s }
%struct.__pthread_mutex_s = type { i32, i32, i32, i32, i32, i16, i16, %struct.__pthread_internal_list }
%struct.__pthread_internal_list = type { ptr, ptr }

@.str = private unnamed_addr constant [55 x i8] c"Invalid reference to string vector object to assign to\00", align 1
@.str.5 = private unnamed_addr constant [64 x i8] c"Invalid index (%d of %d) assigning string vector ('%s', len %d)\00", align 1
@.str.6 = private unnamed_addr constant [6 x i8] c"<nil>\00", align 1

; Function Attrs: nounwind uwtable
define hidden i32 @exr_attr_string_vector_set_entry_with_length(ptr noundef %0, ptr noundef %1, i32 noundef %2, ptr noundef %3, i32 noundef %4) #0 {
  %6 = alloca i32, align 4
  %7 = alloca ptr, align 8
  %8 = alloca ptr, align 8
  %9 = alloca i32, align 4
  %10 = alloca ptr, align 8
  %11 = alloca i32, align 4
  store ptr %0, ptr %7, align 8, !tbaa !3
  store ptr %1, ptr %8, align 8, !tbaa !8
  store i32 %2, ptr %9, align 4, !tbaa !9
  store ptr %3, ptr %10, align 8, !tbaa !36
  store i32 %4, ptr %11, align 4, !tbaa !9
  %12 = load ptr, ptr %7, align 8, !tbaa !3
  %13 = icmp ne ptr %12, null
  br i1 %13, label %15, label %14

14:                                               ; preds = %5
  store i32 2, ptr %6, align 4
  br label %64

15:                                               ; preds = %5
  %16 = load ptr, ptr %8, align 8, !tbaa !8
  %17 = icmp ne ptr %16, null
  br i1 %17, label %24, label %18

18:                                               ; preds = %15
  %19 = load ptr, ptr %7, align 8, !tbaa !3
  %20 = getelementptr inbounds nuw %struct._priv_exr_context_t, ptr %19, i32 0, i32 13
  %21 = load ptr, ptr %20, align 8, !tbaa !13
  %22 = load ptr, ptr %7, align 8, !tbaa !3
  %23 = call i32 %21(ptr noundef %22, i32 noundef 3, ptr noundef @.str)
  store i32 %23, ptr %6, align 4
  br label %64

24:                                               ; preds = %15
  %25 = load i32, ptr %9, align 4, !tbaa !9
  %26 = icmp slt i32 %25, 0
  br i1 %26, label %33, label %27

27:                                               ; preds = %24
  %28 = load i32, ptr %9, align 4, !tbaa !9
  %29 = load ptr, ptr %8, align 8, !tbaa !8
  %30 = getelementptr inbounds nuw %struct.exr_attr_string_vector_t, ptr %29, i32 0, i32 0
  %31 = load i32, ptr %30, align 8, !tbaa !33
  %32 = icmp sge i32 %28, %31
  br i1 %32, label %33, label %51

33:                                               ; preds = %27, %24
  %34 = load ptr, ptr %7, align 8, !tbaa !3
  %35 = getelementptr inbounds nuw %struct._priv_exr_context_t, ptr %34, i32 0, i32 14
  %36 = load ptr, ptr %35, align 8, !tbaa !27
  %37 = load ptr, ptr %7, align 8, !tbaa !3
  %38 = load i32, ptr %9, align 4, !tbaa !9
  %39 = load ptr, ptr %8, align 8, !tbaa !8
  %40 = getelementptr inbounds nuw %struct.exr_attr_string_vector_t, ptr %39, i32 0, i32 0
  %41 = load i32, ptr %40, align 8, !tbaa !33
  %42 = load ptr, ptr %10, align 8, !tbaa !36
  %43 = icmp ne ptr %42, null
  br i1 %43, label %44, label %46

44:                                               ; preds = %33
  %45 = load ptr, ptr %10, align 8, !tbaa !36
  br label %47

46:                                               ; preds = %33
  br label %47

47:                                               ; preds = %46, %44
  %48 = phi ptr [ %45, %44 ], [ @.str.6, %46 ]
  %49 = load i32, ptr %11, align 4, !tbaa !9
  %50 = call i32 (ptr, i32, ptr, ...) %36(ptr noundef %37, i32 noundef 3, ptr noundef @.str.5, i32 noundef %38, i32 noundef %41, ptr noundef %48, i32 noundef %49)
  store i32 %50, ptr %6, align 4
  br label %64

51:                                               ; preds = %27
  %52 = load ptr, ptr %7, align 8, !tbaa !3
  %53 = load ptr, ptr %8, align 8, !tbaa !8
  %54 = getelementptr inbounds nuw %struct.exr_attr_string_vector_t, ptr %53, i32 0, i32 2
  %55 = load ptr, ptr %54, align 8, !tbaa !30
  %56 = ptrtoint ptr %55 to i64
  %57 = inttoptr i64 %56 to ptr
  %58 = load i32, ptr %9, align 4, !tbaa !9
  %59 = sext i32 %58 to i64
  %60 = getelementptr inbounds %struct.exr_attr_string_t, ptr %57, i64 %59
  %61 = load ptr, ptr %10, align 8, !tbaa !36
  %62 = load i32, ptr %11, align 4, !tbaa !9
  %63 = call i32 @exr_attr_string_set_with_length(ptr noundef %52, ptr noundef %60, ptr noundef %61, i32 noundef %62)
  store i32 %63, ptr %6, align 4
  br label %64

64:                                               ; preds = %51, %47, %18, %14
  %65 = load i32, ptr %6, align 4
  ret i32 %65
}