; Function Attrs: nounwind uwtable
define hidden i32 @exr_attr_string_vector_set_entry_with_length(ptr noundef %0, ptr noundef readonly %1, i32 noundef %2, ptr noundef %3, i32 noundef %4) local_unnamed_addr #0 {
  %.not = icmp eq ptr %0, null
  br i1 %.not, label %24, label %6

6:                                                ; preds = %5
  %.not22 = icmp eq ptr %1, null
  br i1 %.not22, label %7, label %11

7:                                                ; preds = %6
  %8 = getelementptr inbounds nuw i8, ptr %0, i64 64
  %9 = load ptr, ptr %8, align 8, !tbaa !3
  %10 = tail call i32 %9(ptr noundef nonnull %0, i32 noundef 3, ptr noundef nonnull @.str) #5
  br label %24

11:                                               ; preds = %6
  %12 = icmp sgt i32 %2, -1
  %.pre = load i32, ptr %1, align 8, !tbaa !27
  %.not23 = icmp slt i32 %2, %.pre
  %or.cond = select i1 %12, i1 %.not23, i1 false
  br i1 %or.cond, label %18, label %13

13:                                               ; preds = %11
  %14 = getelementptr inbounds nuw i8, ptr %0, i64 72
  %15 = load ptr, ptr %14, align 8, !tbaa !22
  %.not24 = icmp eq ptr %3, null
  %16 = select i1 %.not24, ptr @.str.6, ptr %3
  %17 = tail call i32 (ptr, i32, ptr, ...) %15(ptr noundef nonnull %0, i32 noundef 3, ptr noundef nonnull @.str.5, i32 noundef %2, i32 noundef %.pre, ptr noundef nonnull %16, i32 noundef %4) #5
  br label %24

18:                                               ; preds = %11
  %19 = getelementptr inbounds nuw i8, ptr %1, i64 8
  %20 = load ptr, ptr %19, align 8, !tbaa !24
  %21 = zext nneg i32 %2 to i64
  %22 = getelementptr inbounds nuw %struct.exr_attr_string_t, ptr %20, i64 %21
  %23 = tail call i32 @exr_attr_string_set_with_length(ptr noundef nonnull %0, ptr noundef %22, ptr noundef %3, i32 noundef %4) #5
  br label %24

24:                                               ; preds = %5, %18, %13, %7
  %.0 = phi i32 [ %17, %13 ], [ %23, %18 ], [ %10, %7 ], [ 2, %5 ]
  ret i32 %.0
}